; Function Attrs: mustprogress nounwind uwtable
define noalias noundef ptr @jsonnet_realloc(ptr nocapture noundef readnone %0, ptr noundef %1, i64 noundef %2) local_unnamed_addr #3 {
  %4 = icmp eq ptr %1, null
  %5 = icmp eq i64 %2, 0
  br i1 %4, label %6, label %13

6:                                                ; preds = %3
  br i1 %5, label %21, label %7

7:                                                ; preds = %6
  %8 = tail call noalias ptr @malloc(i64 noundef %2) #36
  %9 = icmp eq ptr %8, null
  br i1 %9, label %10, label %21

10:                                               ; preds = %7
  %11 = load ptr, ptr @stderr, align 8
  %12 = tail call i64 @fwrite(ptr nonnull @.str.42, i64 49, i64 1, ptr %11) #34
  tail call void @abort() #29
  unreachable

13:                                               ; preds = %3
  br i1 %5, label %14, label %15

14:                                               ; preds = %13
  tail call void @free(ptr noundef nonnull %1) #30
  br label %21

15:                                               ; preds = %13
  %16 = tail call ptr @realloc(ptr noundef nonnull %1, i64 noundef %2) #38
  %17 = icmp eq ptr %16, null
  br i1 %17, label %18, label %21

18:                                               ; preds = %15
  %19 = load ptr, ptr @stderr, align 8
  %20 = tail call i64 @fwrite(ptr nonnull @.str.42, i64 49, i64 1, ptr %19) #34
  tail call void @abort() #29
  unreachable

21:                                               ; preds = %15, %7, %6, %14
  %.0 = phi ptr [ null, %14 ], [ null, %6 ], [ %8, %7 ], [ %16, %15 ]
  ret ptr %.0
}